; Function Attrs: mustprogress uwtable
define internal fastcc noundef nonnull align 8 dereferenceable(72) ptr @_ZN7doctest12_GLOBAL__N_19XmlWriter14writeAttributeERKNSt7__cxx1112basic_stringIcSt11char_traitsIcESaIcEEEb(ptr noundef nonnull readonly returned align 8 dereferenceable(72) %0, ptr noundef nonnull readonly align 8 captures(none) dereferenceable(32) %1, i1 noundef zeroext %2) unnamed_addr #8 align 2 personality ptr @__gxx_personality_v0 {
  %4 = alloca i8, align 1
  %5 = alloca i8, align 1
  %6 = getelementptr inbounds nuw i8, ptr %0, i64 64
  %7 = load ptr, ptr %6, align 8, !tbaa !499
  call void @llvm.lifetime.start.p0(i64 1, ptr nonnull %5)
  store i8 32, ptr %5, align 1, !tbaa !38
  %8 = load ptr, ptr %7, align 8, !tbaa !31
  %9 = getelementptr i8, ptr %8, i64 -24
  %10 = load i64, ptr %9, align 8
  %11 = getelementptr inbounds i8, ptr %7, i64 %10
  %12 = getelementptr inbounds nuw i8, ptr %11, i64 16
  %13 = load i64, ptr %12, align 8, !tbaa !535
  %.not.i = icmp eq i64 %13, 0
  br i1 %.not.i, label %16, label %14

14:                                               ; preds = %3
  %15 = call noundef nonnull align 8 dereferenceable(8) ptr @_ZSt16__ostream_insertIcSt11char_traitsIcEERSt13basic_ostreamIT_T0_ES6_PKS3_l(ptr noundef nonnull align 8 dereferenceable(8) %7, ptr noundef nonnull %5, i64 noundef 1)
  br label %_ZStlsISt11char_traitsIcEERSt13basic_ostreamIcT_ES5_c.exit

16:                                               ; preds = %3
  %17 = tail call noundef nonnull align 8 dereferenceable(8) ptr @_ZNSo3putEc(ptr noundef nonnull align 8 dereferenceable(8) %7, i8 noundef signext 32)
  br label %_ZStlsISt11char_traitsIcEERSt13basic_ostreamIcT_ES5_c.exit

_ZStlsISt11char_traitsIcEERSt13basic_ostreamIcT_ES5_c.exit: ; preds = %14, %16
  %.0.i = phi ptr [ %15, %14 ], [ %7, %16 ]
  call void @llvm.lifetime.end.p0(i64 1, ptr nonnull %5)
  %18 = load ptr, ptr %1, align 8, !tbaa !33
  %19 = getelementptr inbounds nuw i8, ptr %1, i64 8
  %20 = load i64, ptr %19, align 8, !tbaa !37
  %21 = call noundef nonnull align 8 dereferenceable(8) ptr @_ZSt16__ostream_insertIcSt11char_traitsIcEERSt13basic_ostreamIT_T0_ES6_PKS3_l(ptr noundef nonnull align 8 dereferenceable(8) %.0.i, ptr noundef %18, i64 noundef %20)
  %22 = call noundef nonnull align 8 dereferenceable(8) ptr @_ZSt16__ostream_insertIcSt11char_traitsIcEERSt13basic_ostreamIT_T0_ES6_PKS3_l(ptr noundef nonnull align 8 dereferenceable(8) %21, ptr noundef nonnull @.str.252, i64 noundef 2)
  %23 = select i1 %2, ptr @.str.55, ptr @.str.56
  %24 = select i1 %2, i64 4, i64 5
  %25 = call noundef nonnull align 8 dereferenceable(8) ptr @_ZSt16__ostream_insertIcSt11char_traitsIcEERSt13basic_ostreamIT_T0_ES6_PKS3_l(ptr noundef nonnull align 8 dereferenceable(8) %21, ptr noundef nonnull %23, i64 noundef %24)
  call void @llvm.lifetime.start.p0(i64 1, ptr nonnull %4)
  store i8 34, ptr %4, align 1, !tbaa !38
  %26 = load ptr, ptr %21, align 8, !tbaa !31
  %27 = getelementptr i8, ptr %26, i64 -24
  %28 = load i64, ptr %27, align 8
  %29 = getelementptr inbounds i8, ptr %21, i64 %28
  %30 = getelementptr inbounds nuw i8, ptr %29, i64 16
  %31 = load i64, ptr %30, align 8, !tbaa !535
  %.not.i3 = icmp eq i64 %31, 0
  br i1 %.not.i3, label %34, label %32

32:                                               ; preds = %_ZStlsISt11char_traitsIcEERSt13basic_ostreamIcT_ES5_c.exit
  %33 = call noundef nonnull align 8 dereferenceable(8) ptr @_ZSt16__ostream_insertIcSt11char_traitsIcEERSt13basic_ostreamIT_T0_ES6_PKS3_l(ptr noundef nonnull align 8 dereferenceable(8) %21, ptr noundef nonnull %4, i64 noundef 1)
  br label %_ZStlsISt11char_traitsIcEERSt13basic_ostreamIcT_ES5_c.exit5

34:                                               ; preds = %_ZStlsISt11char_traitsIcEERSt13basic_ostreamIcT_ES5_c.exit
  %35 = call noundef nonnull align 8 dereferenceable(8) ptr @_ZNSo3putEc(ptr noundef nonnull align 8 dereferenceable(8) %21, i8 noundef signext 34)
  br label %_ZStlsISt11char_traitsIcEERSt13basic_ostreamIcT_ES5_c.exit5

_ZStlsISt11char_traitsIcEERSt13basic_ostreamIcT_ES5_c.exit5: ; preds = %32, %34
  call void @llvm.lifetime.end.p0(i64 1, ptr nonnull %4)
  ret ptr %0
}